; Function Attrs: mustprogress nofree norecurse nosync nounwind willreturn memory(argmem: read) uwtable
define noundef zeroext i1 @_ZNK6icu_758numparse4impl12ParsedNumber10seenNumberEv(ptr nocapture noundef nonnull readonly align 8 dereferenceable(216) %this) local_unnamed_addr #3 align 2 {
entry:
  %bogus = getelementptr inbounds i8, ptr %this, i64 8
  %0 = load i8, ptr %bogus, align 8
  %1 = and i8 %0, 1
  %tobool.not = icmp eq i8 %1, 0
  br i1 %tobool.not, label %lor.end, label %lor.lhs.false

lor.lhs.false:                                    ; preds = %entry
  %flags = getelementptr inbounds i8, ptr %this, i64 76
  %2 = load i32, ptr %flags, align 4
  %and = and i32 %2, 64
  %cmp.not = icmp eq i32 %and, 0
  br i1 %cmp.not, label %lor.rhs, label %lor.end

lor.rhs:                                          ; preds = %lor.lhs.false
  %and3 = and i32 %2, 128
  %cmp4 = icmp ne i32 %and3, 0
  br label %lor.end

lor.end:                                          ; preds = %lor.rhs, %lor.lhs.false, %entry
  %3 = phi i1 [ true, %lor.lhs.false ], [ true, %entry ], [ %cmp4, %lor.rhs ]
  ret i1 %3
}